(dp0
Vengine
p1
S'pdflatex'
p2
sVpackages
p3
c__builtin__
set
p4
((lp5
tp6
Rp7
sVfiles_with_guttermarks
p8
g4
((lp9
S'transcriptome_genetics.tex'
p10
aV/Users/dangeles/my_repos/mprsq/tex/./transcriptome_genetics.tex
p11
atp12
Rp13
sVsynctex
p14
I01
s.