(dp0
Vengine
p1
S'pdflatex'
p2
sVpackages
p3
c__builtin__
set
p4
((lp5
Vhyperref
p6
atp7
Rp8
sVfiles_with_guttermarks
p9
g4
((lp10
S'transcriptome_genetics.tex'
p11
aV/Users/dangeles/my_repos/mprsq/tex/./transcriptome_genetics.tex
p12
aV/Users/dangeles/my_repos/mprsq/tex/transcriptome_genetics.tex
p13
atp14
Rp15
sVsynctex
p16
I01
s.